Certificate:
    Data:
        Version: 3 (0x2)
        Serial Number: 0 (0x0)
        Signature Algorithm: sha256WithRSAEncryption
        Issuer: C=KR, ST=Kyeonggi, L=Yongin, O=DKU, OU=SW, CN=swIS/emailAddress=swIS@dku.edu
        Validity
            Not Before: Mar 15 13:43:22 2022 GMT
            Not After : Mar 15 13:43:22 2023 GMT
        Subject: C=KR, ST=Kyenggi, L=Yongin, O=DKU, OU=SW, CN=swIS/emailAddress=swIS@dku.edu
        Subject Public Key Info:
            Public Key Algorithm: rsaEncryption
                RSA Public-Key: (1024 bit)
                Modulus:
                    00:9c:84:c3:77:8d:e8:e9:e7:ae:f7:94:1a:c0:61:
                    ab:72:8c:b4:63:21:14:32:cf:1d:cb:e7:a6:dc:cf:
                    b8:11:63:e7:e2:54:29:e6:50:4e:04:93:22:a9:8d:
                    89:dd:bf:87:99:13:eb:a0:02:b4:5e:e0:16:6d:93:
                    0a:8f:1c:45:e8:6e:15:b1:11:5c:a1:e9:3c:50:92:
                    35:7b:84:8b:6c:17:96:dd:2d:d7:5c:61:2e:67:c9:
                    f5:ba:21:2e:c8:d0:c6:82:6c:47:c2:60:a0:48:bd:
                    25:6e:56:b2:4a:da:01:01:ac:62:a2:9f:12:7f:79:
                    5a:a7:f8:b6:e8:62:52:4d:a5
                Exponent: 65537 (0x10001)
        X509v3 extensions:
            X509v3 Basic Constraints: 
                CA:FALSE
            Netscape Comment: 
                OpenSSL Generated Certificate
            X509v3 Subject Key Identifier: 
                E2:2A:23:2E:38:DD:33:0A:03:27:69:C7:7D:F6:EE:96:A5:D2:F3:7E
            X509v3 Authority Key Identifier: 
                keyid:0A:9E:98:FB:1B:3F:55:BE:9C:B7:C0:DC:7E:4C:5F:DA:A1:A1:2D:86

    Signature Algorithm: sha256WithRSAEncryption
         1a:cc:55:2d:e2:64:24:70:c0:2c:aa:86:55:ab:38:8b:82:20:
         89:36:48:c8:6d:cb:67:0a:14:61:99:46:87:35:1d:7f:bd:d9:
         2c:ac:dd:41:f6:9d:ec:4b:82:63:1a:e6:75:24:89:26:2a:60:
         42:c1:0c:86:b0:83:61:44:02:61:16:39:87:5a:ef:bb:a5:52:
         c9:94:d5:24:a5:7d:f3:c4:ae:9b:37:56:4b:24:e9:6a:07:0c:
         0e:60:ad:6c:55:39:e6:b7:ed:86:2e:08:ad:bd:20:92:38:ec:
         61:56:ed:d7:b6:eb:f0:aa:1e:07:66:15:31:a0:79:fe:aa:95:
         fa:72:3b:36:17:e9:d8:9c:47:28:39:db:07:2f:58:8c:96:48:
         3d:f5:f3:7d:ba:b2:c8:b8:a3:96:c5:ff:e3:d1:8c:b9:e1:01:
         65:88:c0:d0:d3:af:8a:c2:9e:02:79:1a:79:bb:12:a3:18:67:
         57:bd:cd:2f:f6:81:91:5b:b1:01:97:25:a2:7c:23:0b:c6:d1:
         29:bf:bc:71:9a:23:90:e9:61:40:22:fc:20:25:70:e8:43:f7:
         09:39:79:e5:ad:38:4d:cc:82:cf:ba:8a:d1:02:86:8f:4d:c1:
         25:a4:3b:a1:75:1a:cc:48:f0:b9:28:ec:70:f3:7a:e4:3c:8b:
         c9:2e:7a:d6
-----BEGIN CERTIFICATE-----
MIIDYTCCAkmgAwIBAgIBADANBgkqhkiG9w0BAQsFADB4MQswCQYDVQQGEwJLUjER
MA8GA1UECAwIS3llb25nZ2kxDzANBgNVBAcMBllvbmdpbjEMMAoGA1UECgwDREtV
MQswCQYDVQQLDAJTVzENMAsGA1UEAwwEc3dJUzEbMBkGCSqGSIb3DQEJARYMc3dJ
U0Bka3UuZWR1MB4XDTIyMDMxNTEzNDMyMloXDTIzMDMxNTEzNDMyMlowdzELMAkG
A1UEBhMCS1IxEDAOBgNVBAgMB0t5ZW5nZ2kxDzANBgNVBAcMBllvbmdpbjEMMAoG
A1UECgwDREtVMQswCQYDVQQLDAJTVzENMAsGA1UEAwwEc3dJUzEbMBkGCSqGSIb3
DQEJARYMc3dJU0Bka3UuZWR1MIGfMA0GCSqGSIb3DQEBAQUAA4GNADCBiQKBgQCc
hMN3jejp5673lBrAYatyjLRjIRQyzx3L56bcz7gRY+fiVCnmUE4EkyKpjYndv4eZ
E+ugArRe4BZtkwqPHEXobhWxEVyh6TxQkjV7hItsF5bdLddcYS5nyfW6IS7I0MaC
bEfCYKBIvSVuVrJK2gEBrGKinxJ/eVqn+LboYlJNpQIDAQABo3sweTAJBgNVHRME
AjAAMCwGCWCGSAGG+EIBDQQfFh1PcGVuU1NMIEdlbmVyYXRlZCBDZXJ0aWZpY2F0
ZTAdBgNVHQ4EFgQU4iojLjjdMwoDJ2nHffbulqXS834wHwYDVR0jBBgwFoAUCp6Y
+xs/Vb6ct8Dcfkxf2qGhLYYwDQYJKoZIhvcNAQELBQADggEBABrMVS3iZCRwwCyq
hlWrOIuCIIk2SMhty2cKFGGZRoc1HX+92Sys3UH2nexLgmMa5nUkiSYqYELBDIaw
g2FEAmEWOYda77ulUsmU1SSlffPErps3Vksk6WoHDA5grWxVOea37YYuCK29IJI4
7GFW7de26/CqHgdmFTGgef6qlfpyOzYX6dicRyg52wcvWIyWSD318326ssi4o5bF
/+PRjLnhAWWIwNDTr4rCngJ5Gnm7EqMYZ1e9zS/2gZFbsQGXJaJ8IwvG0Sm/vHGa
I5DpYUAi/CAlcOhD9wk5eeWtOE3Mgs+6itECho9NwSWkO6F1GsxI8Lko7HDzeuQ8
i8kuetY=
-----END CERTIFICATE-----
